; Function Attrs: null_pointer_is_valid sspstrong uwtable
define internal void @dissect_pfcp_vendor_specific_node_report_type(ptr noundef %0, ptr noundef %1, ptr noundef %2, ptr readnone captures(none) %3, i16 noundef zeroext %4, i8 zeroext %5, ptr readnone captures(none) %6) #0 {
  %8 = load i32, ptr @hf_pfcp_enterprise_id, align 4
  %9 = tail call ptr @proto_tree_add_item(ptr noundef %2, i32 noundef %8, ptr noundef %0, i32 noundef 0, i32 noundef 2, i32 noundef 0)
  tail call void @proto_tree_add_bitmask_list(ptr noundef %2, ptr noundef %0, i32 noundef 2, i32 noundef 1, ptr noundef nonnull @dissect_pfcp_vendor_specific_node_report_type.pfcp_vendor_specific_node_report_type_flags, i32 noundef 0)
  %10 = icmp ugt i16 %4, 3
  br i1 %10, label %11, label %13

11:                                               ; preds = %7
  %12 = tail call ptr @proto_tree_add_expert(ptr noundef %2, ptr noundef %1, ptr noundef nonnull @ei_pfcp_ie_data_not_decoded, ptr noundef %0, i32 noundef 3, i32 noundef -1)
  br label %13

13:                                               ; preds = %11, %7
  ret void
}